target datalayout = "e-m:e-p270:32:32-p271:32:32-p272:64:64-i64:64-i128:128-f80:128-n8:16:32:64-S128"
target triple = "x86_64-pc-linux-gnu"

%"struct.pxrInternal_v0_24__pxrReserved__::HgiShaderFunctionTextureDesc" = type <{ %"class.std::__cxx11::basic_string", i32, i32, i32, i32, i64, i8, [7 x i8] }>
%"class.std::__cxx11::basic_string" = type { %"struct.std::__cxx11::basic_string<char>::_Alloc_hider", i64, %union.anon }
%"struct.std::__cxx11::basic_string<char>::_Alloc_hider" = type { ptr }
%union.anon = type { i64, [8 x i8] }

; Function Attrs: noreturn nounwind uwtable
define linkonce_odr hidden void @__clang_call_terminate(ptr noundef %0) #6 comdat {
  %2 = call ptr @__cxa_begin_catch(ptr %0) #10
  call void @_ZSt9terminatev() #12
  unreachable
}

; Function Attrs: mustprogress nounwind uwtable
define linkonce_odr noundef i32 @_ZNSt11char_traitsIcE7compareEPKcS2_m(ptr noundef %0, ptr noundef %1, i64 noundef %2) #0 comdat align 2 {
  %4 = alloca i32, align 4
  %5 = alloca ptr, align 8
  %6 = alloca ptr, align 8
  %7 = alloca i64, align 8
  store ptr %0, ptr %5, align 8
  store ptr %1, ptr %6, align 8
  store i64 %2, ptr %7, align 8
  %8 = load i64, ptr %7, align 8
  %9 = icmp eq i64 %8, 0
  br i1 %9, label %10, label %11

10:                                               ; preds = %3
  store i32 0, ptr %4, align 4
  br label %16

11:                                               ; preds = %3
  %12 = load ptr, ptr %5, align 8
  %13 = load ptr, ptr %6, align 8
  %14 = load i64, ptr %7, align 8
  %15 = call i32 @memcmp(ptr noundef %12, ptr noundef %13, i64 noundef %14) #10
  store i32 %15, ptr %4, align 4
  br label %16

16:                                               ; preds = %11, %10
  %17 = load i32, ptr %4, align 4
  ret i32 %17
}

; Function Attrs: mustprogress nounwind uwtable
define linkonce_odr noundef zeroext i1 @_ZSteqIcEN9__gnu_cxx11__enable_ifIXsr9__is_charIT_EE7__valueEbE6__typeERKNSt7__cxx1112basic_stringIS2_St11char_traitsIS2_ESaIS2_EEESC_(ptr noundef nonnull align 8 dereferenceable(32) %0, ptr noundef nonnull align 8 dereferenceable(32) %1) #0 comdat personality ptr @__gxx_personality_v0 {
  %3 = alloca ptr, align 8
  %4 = alloca ptr, align 8
  store ptr %0, ptr %3, align 8
  store ptr %1, ptr %4, align 8
  %5 = load ptr, ptr %3, align 8
  %6 = call noundef i64 @_ZNKSt7__cxx1112basic_stringIcSt11char_traitsIcESaIcEE4sizeEv(ptr noundef nonnull align 8 dereferenceable(32) %5) #10
  %7 = load ptr, ptr %4, align 8
  %8 = call noundef i64 @_ZNKSt7__cxx1112basic_stringIcSt11char_traitsIcESaIcEE4sizeEv(ptr noundef nonnull align 8 dereferenceable(32) %7) #10
  %9 = icmp eq i64 %6, %8
  br i1 %9, label %10, label %21

10:                                               ; preds = %2
  %11 = load ptr, ptr %3, align 8
  %12 = call noundef ptr @_ZNKSt7__cxx1112basic_stringIcSt11char_traitsIcESaIcEE4dataEv(ptr noundef nonnull align 8 dereferenceable(32) %11) #10
  %13 = load ptr, ptr %4, align 8
  %14 = call noundef ptr @_ZNKSt7__cxx1112basic_stringIcSt11char_traitsIcESaIcEE4dataEv(ptr noundef nonnull align 8 dereferenceable(32) %13) #10
  %15 = load ptr, ptr %3, align 8
  %16 = call noundef i64 @_ZNKSt7__cxx1112basic_stringIcSt11char_traitsIcESaIcEE4sizeEv(ptr noundef nonnull align 8 dereferenceable(32) %15) #10
  %17 = invoke noundef i32 @_ZNSt11char_traitsIcE7compareEPKcS2_m(ptr noundef %12, ptr noundef %14, i64 noundef %16)
          to label %18 unwind label %23

18:                                               ; preds = %10
  %19 = icmp ne i32 %17, 0
  %20 = xor i1 %19, true
  br label %21

21:                                               ; preds = %18, %2
  %22 = phi i1 [ false, %2 ], [ %20, %18 ]
  ret i1 %22

23:                                               ; preds = %10
  %24 = landingpad { ptr, i32 }
          catch ptr null
  %25 = extractvalue { ptr, i32 } %24, 0
  call void @__clang_call_terminate(ptr %25) #12
  unreachable
}

; Function Attrs: mustprogress nounwind uwtable
define noundef zeroext i1 @_ZN32pxrInternal_v0_24__pxrReserved__eqERKNS_28HgiShaderFunctionTextureDescES2_(ptr noundef nonnull align 8 dereferenceable(57) %0, ptr noundef nonnull align 8 dereferenceable(57) %1) #0 {
  %3 = alloca ptr, align 8
  %4 = alloca ptr, align 8
  store ptr %0, ptr %3, align 8
  store ptr %1, ptr %4, align 8
  %5 = load ptr, ptr %3, align 8
  %6 = getelementptr inbounds nuw %"struct.pxrInternal_v0_24__pxrReserved__::HgiShaderFunctionTextureDesc", ptr %5, i32 0, i32 0
  %7 = load ptr, ptr %4, align 8
  %8 = getelementptr inbounds nuw %"struct.pxrInternal_v0_24__pxrReserved__::HgiShaderFunctionTextureDesc", ptr %7, i32 0, i32 0
  %9 = call noundef zeroext i1 @_ZSteqIcEN9__gnu_cxx11__enable_ifIXsr9__is_charIT_EE7__valueEbE6__typeERKNSt7__cxx1112basic_stringIS2_St11char_traitsIS2_ESaIS2_EEESC_(ptr noundef nonnull align 8 dereferenceable(32) %6, ptr noundef nonnull align 8 dereferenceable(32) %8) #10
  br i1 %9, label %10, label %54

10:                                               ; preds = %2
  %11 = load ptr, ptr %3, align 8
  %12 = getelementptr inbounds nuw %"struct.pxrInternal_v0_24__pxrReserved__::HgiShaderFunctionTextureDesc", ptr %11, i32 0, i32 1
  %13 = load i32, ptr %12, align 8
  %14 = load ptr, ptr %4, align 8
  %15 = getelementptr inbounds nuw %"struct.pxrInternal_v0_24__pxrReserved__::HgiShaderFunctionTextureDesc", ptr %14, i32 0, i32 1
  %16 = load i32, ptr %15, align 8
  %17 = icmp eq i32 %13, %16
  br i1 %17, label %18, label %54

18:                                               ; preds = %10
  %19 = load ptr, ptr %3, align 8
  %20 = getelementptr inbounds nuw %"struct.pxrInternal_v0_24__pxrReserved__::HgiShaderFunctionTextureDesc", ptr %19, i32 0, i32 2
  %21 = load i32, ptr %20, align 4
  %22 = load ptr, ptr %4, align 8
  %23 = getelementptr inbounds nuw %"struct.pxrInternal_v0_24__pxrReserved__::HgiShaderFunctionTextureDesc", ptr %22, i32 0, i32 2
  %24 = load i32, ptr %23, align 4
  %25 = icmp eq i32 %21, %24
  br i1 %25, label %26, label %54

26:                                               ; preds = %18
  %27 = load ptr, ptr %3, align 8
  %28 = getelementptr inbounds nuw %"struct.pxrInternal_v0_24__pxrReserved__::HgiShaderFunctionTextureDesc", ptr %27, i32 0, i32 3
  %29 = load i32, ptr %28, align 8
  %30 = load ptr, ptr %4, align 8
  %31 = getelementptr inbounds nuw %"struct.pxrInternal_v0_24__pxrReserved__::HgiShaderFunctionTextureDesc", ptr %30, i32 0, i32 3
  %32 = load i32, ptr %31, align 8
  %33 = icmp eq i32 %29, %32
  br i1 %33, label %34, label %54

34:                                               ; preds = %26
  %35 = load ptr, ptr %3, align 8
  %36 = getelementptr inbounds nuw %"struct.pxrInternal_v0_24__pxrReserved__::HgiShaderFunctionTextureDesc", ptr %35, i32 0, i32 5
  %37 = load i64, ptr %36, align 8
  %38 = load ptr, ptr %4, align 8
  %39 = getelementptr inbounds nuw %"struct.pxrInternal_v0_24__pxrReserved__::HgiShaderFunctionTextureDesc", ptr %38, i32 0, i32 5
  %40 = load i64, ptr %39, align 8
  %41 = icmp eq i64 %37, %40
  br i1 %41, label %42, label %54

42:                                               ; preds = %34
  %43 = load ptr, ptr %3, align 8
  %44 = getelementptr inbounds nuw %"struct.pxrInternal_v0_24__pxrReserved__::HgiShaderFunctionTextureDesc", ptr %43, i32 0, i32 6
  %45 = load i8, ptr %44, align 8
  %46 = trunc i8 %45 to i1
  %47 = zext i1 %46 to i32
  %48 = load ptr, ptr %4, align 8
  %49 = getelementptr inbounds nuw %"struct.pxrInternal_v0_24__pxrReserved__::HgiShaderFunctionTextureDesc", ptr %48, i32 0, i32 6
  %50 = load i8, ptr %49, align 8
  %51 = trunc i8 %50 to i1
  %52 = zext i1 %51 to i32
  %53 = icmp eq i32 %47, %52
  br label %54

54:                                               ; preds = %42, %34, %26, %18, %10, %2
  %55 = phi i1 [ false, %34 ], [ false, %26 ], [ false, %18 ], [ false, %10 ], [ false, %2 ], [ %53, %42 ]
  ret i1 %55
}